target datalayout = "e-m:e-p270:32:32-p271:32:32-p272:64:64-i64:64-i128:128-f80:128-n8:16:32:64-S128"
target triple = "x86_64-pc-linux-gnu"

%struct.Agobj_s = type { %struct.Agtag_s, ptr }
%struct.Agtag_s = type { i32, i64 }
%struct.Agrec_s = type { ptr, ptr }
%struct.boxf = type { %struct.pointf_s, %struct.pointf_s }
%struct.pointf_s = type { double, double }
%struct.Agnodeinfo_t = type { %struct.Agrec_s, ptr, ptr, %struct.pointf_s, double, double, %struct.boxf, double, double, double, double, double, ptr, ptr, ptr, i8, i8, i8, i8, i32, i32, i32, ptr, double, i8, i8, ptr, ptr, i8, i64, i8, i8, i8, ptr, ptr, %struct.elist, %struct.elist, %struct.elist, %struct.elist, %struct.elist, ptr, i32, ptr, i32, i32, double, %struct.elist, %struct.elist, %struct.elist, %struct.elist, ptr, i32, i32, i32, [1 x double] }
%struct.elist = type { ptr, i64 }

; Function Attrs: nounwind uwtable
define void @circo_layout(ptr noundef %0) #0 {
  %2 = alloca ptr, align 8
  store ptr %0, ptr %2, align 8, !tbaa !3
  %3 = load ptr, ptr %2, align 8, !tbaa !3
  %4 = call i32 @agnnodes(ptr noundef %3)
  %5 = icmp eq i32 %4, 0
  br i1 %5, label %6, label %7

6:                                                ; preds = %1
  br label %18

7:                                                ; preds = %1
  %8 = load ptr, ptr %2, align 8, !tbaa !3
  call void @circo_init_graph(ptr noundef %8)
  %9 = load ptr, ptr %2, align 8, !tbaa !3
  call void @circoLayout(ptr noundef %9)
  %10 = load ptr, ptr %2, align 8, !tbaa !3
  %11 = call ptr @agfstnode(ptr noundef %10)
  %12 = getelementptr inbounds nuw %struct.Agobj_s, ptr %11, i32 0, i32 1
  %13 = load ptr, ptr %12, align 8, !tbaa !8
  %14 = getelementptr inbounds nuw %struct.Agnodeinfo_t, ptr %13, i32 0, i32 14
  %15 = load ptr, ptr %14, align 8, !tbaa !38
  call void @free(ptr noundef %15) #8
  %16 = load ptr, ptr %2, align 8, !tbaa !3
  call void @spline_edges(ptr noundef %16)
  %17 = load ptr, ptr %2, align 8, !tbaa !3
  call void @dotneato_postprocess(ptr noundef %17)
  br label %18

18:                                               ; preds = %7, %6
  ret void
}