; Function Attrs: nounwind uwtable
define void @circo_layout(ptr noundef %0) local_unnamed_addr #0 {
  %2 = tail call i32 @agnnodes(ptr noundef %0) #8
  %3 = icmp eq i32 %2, 0
  br i1 %3, label %10, label %4

4:                                                ; preds = %1
  tail call void @circo_init_graph(ptr noundef %0)
  tail call void @circoLayout(ptr noundef %0)
  %5 = tail call ptr @agfstnode(ptr noundef %0) #8
  %6 = getelementptr inbounds nuw i8, ptr %5, i64 16
  %7 = load ptr, ptr %6, align 8, !tbaa !3
  %8 = getelementptr inbounds nuw i8, ptr %7, i64 152
  %9 = load ptr, ptr %8, align 8, !tbaa !36
  tail call void @free(ptr noundef %9) #8
  tail call void @spline_edges(ptr noundef %0) #8
  tail call void @dotneato_postprocess(ptr noundef %0) #8
  br label %10

10:                                               ; preds = %1, %4
  ret void
}